; Function Attrs: mustprogress nounwind uwtable
define dso_local noundef ptr @_ZN5clang20OMPDeclareMapperDecl18CreateDeserializedERNS_10ASTContextENS_12GlobalDeclIDEj(ptr noundef nonnull align 8 dereferenceable(23096) %0, i64 %1, i32 noundef %2) local_unnamed_addr #1 align 2 {
  %4 = alloca %"class.clang::SourceLocation", align 4
  %5 = alloca %"class.clang::DeclarationName", align 8
  %6 = alloca %"class.clang::QualType", align 8
  %7 = alloca %"class.clang::DeclarationName", align 8
  %8 = alloca ptr, align 8
  store i32 0, ptr %4, align 4
  store i64 0, ptr %5, align 8
  store i64 0, ptr %6, align 8
  store i64 0, ptr %7, align 8
  store ptr null, ptr %8, align 8
  %9 = call noundef ptr @_ZN5clang23OMPDeclarativeDirectiveINS_9ValueDeclEE20createEmptyDirectiveINS_20OMPDeclareMapperDeclEJNS_14SourceLocationENS_15DeclarationNameENS_8QualTypeES6_DnEEEPT_RKNS_10ASTContextENS_12GlobalDeclIDEjjDpOT0_(ptr noundef nonnull align 8 dereferenceable(23096) %0, i64 %1, i32 noundef %2, i32 noundef 1, ptr noundef nonnull align 4 dereferenceable(4) %4, ptr noundef nonnull align 8 dereferenceable(8) %5, ptr noundef nonnull align 8 dereferenceable(8) %6, ptr noundef nonnull align 8 dereferenceable(8) %7, ptr noundef nonnull align 8 dereferenceable(8) %8)
  ret ptr %9
}